target datalayout = "e-m:e-p270:32:32-p271:32:32-p272:64:64-i64:64-i128:128-f80:128-n8:16:32:64-S128"
target triple = "x86_64-pc-linux-gnu"

%struct.uv_udp_s = type { ptr, ptr, i32, ptr, [2 x ptr], %union.anon, ptr, i32, i64, i64, ptr, ptr, %struct.uv__io_s, [2 x ptr], [2 x ptr] }
%union.anon = type { [4 x ptr] }
%struct.uv__io_s = type { ptr, [2 x ptr], [2 x ptr], i32, i32, i32 }

@once = internal global i32 0, align 4
@uv__recvmmsg_avail = internal global i32 0, align 4

; Function Attrs: nounwind uwtable
define dso_local i32 @uv_udp_using_recvmmsg(ptr noundef %0) #0 {
  %2 = alloca i32, align 4
  %3 = alloca ptr, align 8
  store ptr %0, ptr %3, align 8
  %4 = load ptr, ptr %3, align 8
  %5 = getelementptr inbounds %struct.uv_udp_s, ptr %4, i32 0, i32 7
  %6 = load i32, ptr %5, align 8
  %7 = and i32 %6, 67108864
  %8 = icmp ne i32 %7, 0
  br i1 %8, label %9, label %11

9:                                                ; preds = %1
  call void @uv_once(ptr noundef @once, ptr noundef @uv__udp_mmsg_init)
  %10 = load i32, ptr @uv__recvmmsg_avail, align 4
  store i32 %10, ptr %2, align 4
  br label %12

11:                                               ; preds = %1
  store i32 0, ptr %2, align 4
  br label %12

12:                                               ; preds = %11, %9
  %13 = load i32, ptr %2, align 4
  ret i32 %13
}