; Function Attrs: nounwind uwtable
define dso_local range(i32 0, 2) i32 @uv_udp_using_recvmmsg(ptr noundef readonly captures(none) %0) local_unnamed_addr #0 {
  %2 = getelementptr inbounds nuw i8, ptr %0, i64 88
  %3 = load i32, ptr %2, align 8
  %4 = and i32 %3, 67108864
  %.not = icmp eq i32 %4, 0
  br i1 %.not, label %7, label %5

5:                                                ; preds = %1
  tail call void @uv_once(ptr noundef nonnull @once, ptr noundef nonnull @uv__udp_mmsg_init) #9
  %.b = load i1, ptr @uv__recvmmsg_avail, align 4
  %6 = zext i1 %.b to i32
  br label %7

7:                                                ; preds = %1, %5
  %.0 = phi i32 [ %6, %5 ], [ 0, %1 ]
  ret i32 %.0
}